(lp0
VMMM\u000a
p1
aVABT\u000a
p2
aVABBV\u000a
p3
aVABMD\u000a
p4
aVACN\u000a
p5
aVATVI\u000a
p6
aVADBE\u000a
p7
aVAMD\u000a
p8
aVAAP\u000a
p9
aVAES\u000a
p10
aVAMG\u000a
p11
aVAFL\u000a
p12
aVA\u000a
p13
aVAPD\u000a
p14
aVAKAM\u000a
p15
aVALK\u000a
p16
aVALB\u000a
p17
aVARE\u000a
p18
aVALXN\u000a
p19
aVALGN\u000a
p20
aVALLE\u000a
p21
aVAGN\u000a
p22
aVADS\u000a
p23
aVLNT\u000a
p24
aVALL\u000a
p25
aVGOOGL\u000a
p26
aVGOOG\u000a
p27
aVMO\u000a
p28
aVAMZN\u000a
p29
aVAEE\u000a
p30
aVAAL\u000a
p31
aVAEP\u000a
p32
aVAXP\u000a
p33
aVAIG\u000a
p34
aVAMT\u000a
p35
aVAWK\u000a
p36
aVAMP\u000a
p37
aVABC\u000a
p38
aVAME\u000a
p39
aVAMGN\u000a
p40
aVAPH\u000a
p41
aVAPC\u000a
p42
aVADI\u000a
p43
aVANSS\u000a
p44
aVANTM\u000a
p45
aVAON\u000a
p46
aVAOS\u000a
p47
aVAPA\u000a
p48
aVAIV\u000a
p49
aVAAPL\u000a
p50
aVAMAT\u000a
p51
aVAPTV\u000a
p52
aVADM\u000a
p53
aVARNC\u000a
p54
aVANET\u000a
p55
aVAJG\u000a
p56
aVAIZ\u000a
p57
aVATO\u000a
p58
aVT\u000a
p59
aVADSK\u000a
p60
aVADP\u000a
p61
aVAZO\u000a
p62
aVAVB\u000a
p63
aVAVY\u000a
p64
aVBHGE\u000a
p65
aVBLL\u000a
p66
aVBAC\u000a
p67
aVBK\u000a
p68
aVBAX\u000a
p69
aVBBT\u000a
p70
aVBDX\u000a
p71
aVBRK.B\u000a
p72
aVBBY\u000a
p73
aVBIIB\u000a
p74
aVBLK\u000a
p75
aVHRB\u000a
p76
aVBA\u000a
p77
aVBKNG\u000a
p78
aVBWA\u000a
p79
aVBXP\u000a
p80
aVBSX\u000a
p81
aVBMY\u000a
p82
aVAVGO\u000a
p83
aVBR\u000a
p84
aVBF.B\u000a
p85
aVCHRW\u000a
p86
aVCOG\u000a
p87
aVCDNS\u000a
p88
aVCPB\u000a
p89
aVCOF\u000a
p90
aVCPRI\u000a
p91
aVCAH\u000a
p92
aVKMX\u000a
p93
aVCCL\u000a
p94
aVCAT\u000a
p95
aVCBOE\u000a
p96
aVCBRE\u000a
p97
aVCBS\u000a
p98
aVCE\u000a
p99
aVCELG\u000a
p100
aVCNC\u000a
p101
aVCNP\u000a
p102
aVCTL\u000a
p103
aVCERN\u000a
p104
aVCF\u000a
p105
aVSCHW\u000a
p106
aVCHTR\u000a
p107
aVCVX\u000a
p108
aVCMG\u000a
p109
aVCB\u000a
p110
aVCHD\u000a
p111
aVCI\u000a
p112
aVXEC\u000a
p113
aVCINF\u000a
p114
aVCTAS\u000a
p115
aVCSCO\u000a
p116
aVC\u000a
p117
aVCFG\u000a
p118
aVCTXS\u000a
p119
aVCLX\u000a
p120
aVCME\u000a
p121
aVCMS\u000a
p122
aVKO\u000a
p123
aVCTSH\u000a
p124
aVCL\u000a
p125
aVCMCSA\u000a
p126
aVCMA\u000a
p127
aVCAG\u000a
p128
aVCXO\u000a
p129
aVCOP\u000a
p130
aVED\u000a
p131
aVSTZ\u000a
p132
aVCOO\u000a
p133
aVCPRT\u000a
p134
aVGLW\u000a
p135
aVCOST\u000a
p136
aVCOTY\u000a
p137
aVCCI\u000a
p138
aVCSX\u000a
p139
aVCMI\u000a
p140
aVCVS\u000a
p141
aVDHI\u000a
p142
aVDHR\u000a
p143
aVDRI\u000a
p144
aVDVA\u000a
p145
aVDE\u000a
p146
aVDAL\u000a
p147
aVXRAY\u000a
p148
aVDVN\u000a
p149
aVFANG\u000a
p150
aVDLR\u000a
p151
aVDFS\u000a
p152
aVDISCA\u000a
p153
aVDISCK\u000a
p154
aVDISH\u000a
p155
aVDG\u000a
p156
aVDLTR\u000a
p157
aVD\u000a
p158
aVDOV\u000a
p159
aVDOW\u000a
p160
aVDWDP\u000a
p161
aVDTE\u000a
p162
aVDRE\u000a
p163
aVDUK\u000a
p164
aVDXC\u000a
p165
aVETFC\u000a
p166
aVEMN\u000a
p167
aVETN\u000a
p168
aVEBAY\u000a
p169
aVECL\u000a
p170
aVEIX\u000a
p171
aVEW\u000a
p172
aVEA\u000a
p173
aVEMR\u000a
p174
aVETR\u000a
p175
aVEOG\u000a
p176
aVEFX\u000a
p177
aVEQIX\u000a
p178
aVEQR\u000a
p179
aVESS\u000a
p180
aVEL\u000a
p181
aVEVRG\u000a
p182
aVES\u000a
p183
aVRE\u000a
p184
aVEXC\u000a
p185
aVEXPE\u000a
p186
aVEXPD\u000a
p187
aVEXR\u000a
p188
aVXOM\u000a
p189
aVFFIV\u000a
p190
aVFB\u000a
p191
aVFAST\u000a
p192
aVFRT\u000a
p193
aVFDX\u000a
p194
aVFIS\u000a
p195
aVFITB\u000a
p196
aVFE\u000a
p197
aVFRC\u000a
p198
aVFISV\u000a
p199
aVFLT\u000a
p200
aVFLIR\u000a
p201
aVFLS\u000a
p202
aVFLR\u000a
p203
aVFMC\u000a
p204
aVFL\u000a
p205
aVF\u000a
p206
aVFTNT\u000a
p207
aVFTV\u000a
p208
aVFBHS\u000a
p209
aVFOXA\u000a
p210
aVFOX\u000a
p211
aVBEN\u000a
p212
aVFCX\u000a
p213
aVGPS\u000a
p214
aVGRMN\u000a
p215
aVIT\u000a
p216
aVGD\u000a
p217
aVGE\u000a
p218
aVGIS\u000a
p219
aVGM\u000a
p220
aVGPC\u000a
p221
aVGILD\u000a
p222
aVGPN\u000a
p223
aVGS\u000a
p224
aVGWW\u000a
p225
aVHAL\u000a
p226
aVHBI\u000a
p227
aVHOG\u000a
p228
aVHRS\u000a
p229
aVHIG\u000a
p230
aVHAS\u000a
p231
aVHCA\u000a
p232
aVHCP\u000a
p233
aVHP\u000a
p234
aVHSIC\u000a
p235
aVHSY\u000a
p236
aVHES\u000a
p237
aVHPE\u000a
p238
aVHLT\u000a
p239
aVHFC\u000a
p240
aVHOLX\u000a
p241
aVHD\u000a
p242
aVHON\u000a
p243
aVHRL\u000a
p244
aVHST\u000a
p245
aVHPQ\u000a
p246
aVHUM\u000a
p247
aVHBAN\u000a
p248
aVHII\u000a
p249
aVIDXX\u000a
p250
aVINFO\u000a
p251
aVITW\u000a
p252
aVILMN\u000a
p253
aVIR\u000a
p254
aVINTC\u000a
p255
aVICE\u000a
p256
aVIBM\u000a
p257
aVINCY\u000a
p258
aVIP\u000a
p259
aVIPG\u000a
p260
aVIFF\u000a
p261
aVINTU\u000a
p262
aVISRG\u000a
p263
aVIVZ\u000a
p264
aVIPGP\u000a
p265
aVIQV\u000a
p266
aVIRM\u000a
p267
aVJKHY\u000a
p268
aVJEC\u000a
p269
aVJBHT\u000a
p270
aVJEF\u000a
p271
aVSJM\u000a
p272
aVJNJ\u000a
p273
aVJCI\u000a
p274
aVJPM\u000a
p275
aVJNPR\u000a
p276
aVKSU\u000a
p277
aVK\u000a
p278
aVKEY\u000a
p279
aVKEYS\u000a
p280
aVKMB\u000a
p281
aVKIM\u000a
p282
aVKMI\u000a
p283
aVKLAC\u000a
p284
aVKSS\u000a
p285
aVKHC\u000a
p286
aVKR\u000a
p287
aVLB\u000a
p288
aVLLL\u000a
p289
aVLH\u000a
p290
aVLRCX\u000a
p291
aVLW\u000a
p292
aVLEG\u000a
p293
aVLEN\u000a
p294
aVLLY\u000a
p295
aVLNC\u000a
p296
aVLIN\u000a
p297
aVLKQ\u000a
p298
aVLMT\u000a
p299
aVL\u000a
p300
aVLOW\u000a
p301
aVLYB\u000a
p302
aVMTB\u000a
p303
aVMAC\u000a
p304
aVM\u000a
p305
aVMRO\u000a
p306
aVMPC\u000a
p307
aVMAR\u000a
p308
aVMMC\u000a
p309
aVMLM\u000a
p310
aVMAS\u000a
p311
aVMA\u000a
p312
aVMAT\u000a
p313
aVMKC\u000a
p314
aVMXIM\u000a
p315
aVMCD\u000a
p316
aVMCK\u000a
p317
aVMDT\u000a
p318
aVMRK\u000a
p319
aVMET\u000a
p320
aVMTD\u000a
p321
aVMGM\u000a
p322
aVMCHP\u000a
p323
aVMU\u000a
p324
aVMSFT\u000a
p325
aVMAA\u000a
p326
aVMHK\u000a
p327
aVTAP\u000a
p328
aVMDLZ\u000a
p329
aVMNST\u000a
p330
aVMCO\u000a
p331
aVMS\u000a
p332
aVMOS\u000a
p333
aVMSI\u000a
p334
aVMSCI\u000a
p335
aVMYL\u000a
p336
aVNDAQ\u000a
p337
aVNOV\u000a
p338
aVNKTR\u000a
p339
aVNTAP\u000a
p340
aVNFLX\u000a
p341
aVNWL\u000a
p342
aVNEM\u000a
p343
aVNWSA\u000a
p344
aVNWS\u000a
p345
aVNEE\u000a
p346
aVNLSN\u000a
p347
aVNKE\u000a
p348
aVNI\u000a
p349
aVNBL\u000a
p350
aVJWN\u000a
p351
aVNSC\u000a
p352
aVNTRS\u000a
p353
aVNOC\u000a
p354
aVNCLH\u000a
p355
aVNRG\u000a
p356
aVNUE\u000a
p357
aVNVDA\u000a
p358
aVORLY\u000a
p359
aVOXY\u000a
p360
aVOMC\u000a
p361
aVOKE\u000a
p362
aVORCL\u000a
p363
aVPCAR\u000a
p364
aVPKG\u000a
p365
aVPH\u000a
p366
aVPAYX\u000a
p367
aVPYPL\u000a
p368
aVPNR\u000a
p369
aVPBCT\u000a
p370
aVPEP\u000a
p371
aVPKI\u000a
p372
aVPRGO\u000a
p373
aVPFE\u000a
p374
aVPM\u000a
p375
aVPSX\u000a
p376
aVPNW\u000a
p377
aVPXD\u000a
p378
aVPNC\u000a
p379
aVPPG\u000a
p380
aVPPL\u000a
p381
aVPFG\u000a
p382
aVPG\u000a
p383
aVPGR\u000a
p384
aVPLD\u000a
p385
aVPRU\u000a
p386
aVPEG\u000a
p387
aVPSA\u000a
p388
aVPHM\u000a
p389
aVPVH\u000a
p390
aVQRVO\u000a
p391
aVPWR\u000a
p392
aVQCOM\u000a
p393
aVDGX\u000a
p394
aVRL\u000a
p395
aVRJF\u000a
p396
aVRTN\u000a
p397
aVO\u000a
p398
aVRHT\u000a
p399
aVREG\u000a
p400
aVREGN\u000a
p401
aVRF\u000a
p402
aVRSG\u000a
p403
aVRMD\u000a
p404
aVRHI\u000a
p405
aVROK\u000a
p406
aVROL\u000a
p407
aVROP\u000a
p408
aVROST\u000a
p409
aVRCL\u000a
p410
aVCRM\u000a
p411
aVSBAC\u000a
p412
aVSLB\u000a
p413
aVSTX\u000a
p414
aVSEE\u000a
p415
aVSRE\u000a
p416
aVSHW\u000a
p417
aVSPG\u000a
p418
aVSWKS\u000a
p419
aVSLG\u000a
p420
aVSNA\u000a
p421
aVSO\u000a
p422
aVLUV\u000a
p423
aVSPGI\u000a
p424
aVSWK\u000a
p425
aVSBUX\u000a
p426
aVSTT\u000a
p427
aVSYK\u000a
p428
aVSTI\u000a
p429
aVSIVB\u000a
p430
aVSYMC\u000a
p431
aVSYF\u000a
p432
aVSNPS\u000a
p433
aVSYY\u000a
p434
aVTROW\u000a
p435
aVTTWO\u000a
p436
aVTPR\u000a
p437
aVTGT\u000a
p438
aVTEL\u000a
p439
aVFTI\u000a
p440
aVTFX\u000a
p441
aVTXN\u000a
p442
aVTXT\u000a
p443
aVTMO\u000a
p444
aVTIF\u000a
p445
aVTWTR\u000a
p446
aVTJX\u000a
p447
aVTMK\u000a
p448
aVTSS\u000a
p449
aVTSCO\u000a
p450
aVTDG\u000a
p451
aVTRV\u000a
p452
aVTRIP\u000a
p453
aVTSN\u000a
p454
aVUDR\u000a
p455
aVULTA\u000a
p456
aVUSB\u000a
p457
aVUAA\u000a
p458
aVUA\u000a
p459
aVUNP\u000a
p460
aVUAL\u000a
p461
aVUNH\u000a
p462
aVUPS\u000a
p463
aVURI\u000a
p464
aVUTX\u000a
p465
aVUHS\u000a
p466
aVUNM\u000a
p467
aVVFC\u000a
p468
aVVLO\u000a
p469
aVVAR\u000a
p470
aVVTR\u000a
p471
aVVRSN\u000a
p472
aVVRSK\u000a
p473
aVVZ\u000a
p474
aVVRTX\u000a
p475
aVVIAB\u000a
p476
aVV\u000a
p477
aVVNO\u000a
p478
aVVMC\u000a
p479
aVWAB\u000a
p480
aVWMT\u000a
p481
aVWBA\u000a
p482
aVDIS\u000a
p483
aVWM\u000a
p484
aVWAT\u000a
p485
aVWEC\u000a
p486
aVWCG\u000a
p487
aVWFC\u000a
p488
aVWELL\u000a
p489
aVWDC\u000a
p490
aVWU\u000a
p491
aVWRK\u000a
p492
aVWY\u000a
p493
aVWHR\u000a
p494
aVWMB\u000a
p495
aVWLTW\u000a
p496
aVWYNN\u000a
p497
aVXEL\u000a
p498
aVXRX\u000a
p499
aVXLNX\u000a
p500
aVXYL\u000a
p501
aVYUM\u000a
p502
aVZBH\u000a
p503
aVZION\u000a
p504
aVZTS\u000a
p505
a.